target datalayout = "e-m:e-p270:32:32-p271:32:32-p272:64:64-i64:64-i128:128-f80:128-n8:16:32:64-S128"
target triple = "x86_64-pc-linux-gnu"

%struct.Node = type { i32 }
%union.ListCell = type { ptr }
%struct.TypeName = type { i32, ptr, i32, i8, i8, ptr, i32, ptr, i32 }

; Function Attrs: inlinehint nounwind uwtable
define internal ptr @newNode(i64 noundef %0, i32 noundef %1) #2 {
  %3 = alloca i64, align 8
  %4 = alloca i32, align 4
  %5 = alloca ptr, align 8
  store i64 %0, ptr %3, align 8
  store i32 %1, ptr %4, align 4
  call void @llvm.lifetime.start.p0(i64 8, ptr %5) #6
  %6 = load i64, ptr %3, align 8
  %7 = call ptr @palloc0(i64 noundef %6)
  store ptr %7, ptr %5, align 8
  %8 = load i32, ptr %4, align 4
  %9 = load ptr, ptr %5, align 8
  %10 = getelementptr inbounds nuw %struct.Node, ptr %9, i32 0, i32 0
  store i32 %8, ptr %10, align 4
  %11 = load ptr, ptr %5, align 8
  call void @llvm.lifetime.end.p0(i64 8, ptr %5) #6
  ret ptr %11
}

; Function Attrs: nounwind uwtable
define dso_local ptr @makeTypeNameFromNameList(ptr noundef %0) #0 {
  %2 = alloca ptr, align 8
  %3 = alloca ptr, align 8
  store ptr %0, ptr %2, align 8
  call void @llvm.lifetime.start.p0(i64 8, ptr %3) #6
  %4 = call ptr @newNode(i64 noundef 56, i32 noundef 68)
  store ptr %4, ptr %3, align 8
  %5 = load ptr, ptr %2, align 8
  %6 = load ptr, ptr %3, align 8
  %7 = getelementptr inbounds nuw %struct.TypeName, ptr %6, i32 0, i32 1
  store ptr %5, ptr %7, align 8
  %8 = load ptr, ptr %3, align 8
  %9 = getelementptr inbounds nuw %struct.TypeName, ptr %8, i32 0, i32 5
  store ptr null, ptr %9, align 8
  %10 = load ptr, ptr %3, align 8
  %11 = getelementptr inbounds nuw %struct.TypeName, ptr %10, i32 0, i32 6
  store i32 -1, ptr %11, align 8
  %12 = load ptr, ptr %3, align 8
  %13 = getelementptr inbounds nuw %struct.TypeName, ptr %12, i32 0, i32 8
  store i32 -1, ptr %13, align 8
  %14 = load ptr, ptr %3, align 8
  call void @llvm.lifetime.end.p0(i64 8, ptr %3) #6
  ret ptr %14
}

; Function Attrs: nounwind uwtable
define dso_local ptr @makeTypeName(ptr noundef %0) #0 {
  %2 = alloca ptr, align 8
  %3 = alloca %union.ListCell, align 8
  store ptr %0, ptr %2, align 8
  %4 = load ptr, ptr %2, align 8
  %5 = call ptr @makeString(ptr noundef %4)
  store ptr %5, ptr %3, align 8
  %6 = getelementptr inbounds nuw %union.ListCell, ptr %3, i32 0, i32 0
  %7 = load ptr, ptr %6, align 8
  %8 = call ptr @list_make1_impl(i32 noundef 1, ptr %7)
  %9 = call ptr @makeTypeNameFromNameList(ptr noundef %8)
  ret ptr %9
}