; Function Attrs: nounwind uwtable
define dso_local noundef ptr @makeTypeName(ptr noundef %0) local_unnamed_addr #0 {
  %2 = tail call ptr @makeString(ptr noundef %0) #7
  %3 = tail call ptr @list_make1_impl(i32 noundef 1, ptr %2) #7
  %4 = tail call noundef ptr @palloc0(i64 noundef 56) #7
  store i32 68, ptr %4, align 4
  %5 = getelementptr inbounds nuw i8, ptr %4, i64 8
  store ptr %3, ptr %5, align 8
  %6 = getelementptr inbounds nuw i8, ptr %4, i64 24
  store ptr null, ptr %6, align 8
  %7 = getelementptr inbounds nuw i8, ptr %4, i64 32
  store i32 -1, ptr %7, align 8
  %8 = getelementptr inbounds nuw i8, ptr %4, i64 48
  store i32 -1, ptr %8, align 8
  ret ptr %4
}